target datalayout = "e-m:e-p270:32:32-p271:32:32-p272:64:64-i64:64-i128:128-f80:128-n8:16:32:64-S128"
target triple = "x86_64-pc-linux-gnu"

%struct._object = type { i64, ptr }

; Function Attrs: inlinehint mustprogress nounwind uwtable
define internal void @_ZL10_Py_INCREFP7_object(ptr noundef %0) #9 {
  %2 = alloca ptr, align 8
  store ptr %0, ptr %2, align 8
  %3 = load ptr, ptr %2, align 8
  %4 = getelementptr inbounds nuw %struct._object, ptr %3, i32 0, i32 0
  %5 = load i64, ptr %4, align 8
  %6 = add nsw i64 %5, 1
  store i64 %6, ptr %4, align 8
  ret void
}

; Function Attrs: mustprogress uwtable
define noundef ptr @_ZN8nanobind6detail25dict_get_item_ref_or_failEP7_objectS2_(ptr noundef %0, ptr noundef %1) #12 {
  %3 = alloca ptr, align 8
  %4 = alloca ptr, align 8
  %5 = alloca ptr, align 8
  %6 = alloca i8, align 1
  store ptr %0, ptr %3, align 8
  store ptr %1, ptr %4, align 8
  call void @llvm.lifetime.start.p0(i64 8, ptr %5) #20
  call void @llvm.lifetime.start.p0(i64 1, ptr %6) #20
  store i8 0, ptr %6, align 1
  %7 = load ptr, ptr %3, align 8
  %8 = load ptr, ptr %4, align 8
  %9 = call ptr @PyDict_GetItemWithError(ptr noundef %7, ptr noundef %8)
  store ptr %9, ptr %5, align 8
  %10 = load ptr, ptr %5, align 8
  %11 = icmp ne ptr %10, null
  br i1 %11, label %12, label %14

12:                                               ; preds = %2
  %13 = load ptr, ptr %5, align 8
  call void @_ZL10_Py_INCREFP7_object(ptr noundef %13)
  br label %18

14:                                               ; preds = %2
  %15 = call ptr @PyErr_Occurred()
  %16 = icmp ne ptr %15, null
  %17 = zext i1 %16 to i8
  store i8 %17, ptr %6, align 1
  br label %18

18:                                               ; preds = %14, %12
  %19 = load i8, ptr %6, align 1, !range !6, !noundef !7
  %20 = trunc i8 %19 to i1
  %21 = xor i1 %20, true
  %22 = xor i1 %21, true
  %23 = zext i1 %22 to i64
  %24 = call i64 @llvm.expect.i64(i64 %23, i64 0)
  %25 = icmp ne i64 %24, 0
  br i1 %25, label %26, label %27

26:                                               ; preds = %18
  call void @_ZN8nanobind6detail16fail_unspecifiedEv() #22
  unreachable

27:                                               ; preds = %18
  %28 = load ptr, ptr %5, align 8
  call void @llvm.lifetime.end.p0(i64 1, ptr %6) #20
  call void @llvm.lifetime.end.p0(i64 8, ptr %5) #20
  ret ptr %28
}