; Function Attrs: mustprogress uwtable
define noundef ptr @_ZN8nanobind6detail25dict_get_item_ref_or_failEP7_objectS2_(ptr noundef %0, ptr noundef %1) local_unnamed_addr #15 {
  %3 = tail call ptr @PyDict_GetItemWithError(ptr noundef %0, ptr noundef %1)
  %.not = icmp eq ptr %3, null
  br i1 %.not, label %6, label %.critedge

.critedge:                                        ; preds = %2
  %4 = load i64, ptr %3, align 8
  %5 = add nsw i64 %4, 1
  store i64 %5, ptr %3, align 8
  br label %9

6:                                                ; preds = %2
  %7 = tail call ptr @PyErr_Occurred()
  %.not6 = icmp eq ptr %7, null
  br i1 %.not6, label %9, label %8, !prof !4

8:                                                ; preds = %6
  tail call void @_ZN8nanobind6detail16fail_unspecifiedEv() #29
  unreachable

9:                                                ; preds = %.critedge, %6
  ret ptr %3
}